#include <math.h>
#include <stdio.h>
#include <stdlib.h>
#include <string.h>

int main(){
	int i,n,len,a[100],s[100],re[100],j;
	 scanf("%d",&n);

	 for(i=0;i<n;i++){
	 scanf("%d",&a[i]);
	 }
	 
	 for(i=0;i<n;i++){
		 if(a[i]==1||a[i]==2){
		 re[i]=1;
		 }
		 else {
			 s[0]=1;s[1]=1;
		  for(j=2;j<a[i];j++){
		  s[j]=s[j-1]+s[j-2];
		  }
		  re[i]=s[j-1];
		 }
	 }
	 
	 for(i=0;i<n;i++){
	 printf("%d\n",re[i]);
	 }
	
	return 0;}